; Function Attrs: nounwind uwtable
define internal ptr @proxy_iternext(ptr noundef readonly captures(none) %0) #0 {
  %2 = getelementptr i8, ptr %0, i64 16
  %.val12 = load ptr, ptr %2, align 8, !tbaa !37
  %3 = icmp eq ptr %.val12, @_Py_NoneStruct
  br i1 %3, label %proxy_check_ref.exit, label %4

4:                                                ; preds = %1
  %.val.i.i = load i32, ptr %.val12, align 8, !tbaa !42
  %.not.i.i = icmp eq i32 %.val.i.i, 0
  br i1 %.not.i.i, label %proxy_check_ref.exit, label %5

5:                                                ; preds = %4
  %6 = icmp slt i32 %.val.i.i, 0
  br i1 %6, label %_PyWeakref_GET_REF.exit, label %7

7:                                                ; preds = %5
  %8 = add nuw i32 %.val.i.i, 1
  store i32 %8, ptr %.val12, align 8, !tbaa !42
  br label %_PyWeakref_GET_REF.exit

proxy_check_ref.exit:                             ; preds = %4, %1
  %9 = load ptr, ptr @PyExc_ReferenceError, align 8, !tbaa !45
  tail call void @PyErr_SetString(ptr noundef %9, ptr noundef nonnull @.str.21) #6
  br label %Py_DECREF.exit

_PyWeakref_GET_REF.exit:                          ; preds = %7, %5
  %10 = tail call i32 @PyIter_Check(ptr noundef nonnull %.val12) #6
  %.not = icmp eq i32 %10, 0
  br i1 %.not, label %11, label %22

11:                                               ; preds = %_PyWeakref_GET_REF.exit
  %12 = load ptr, ptr @PyExc_TypeError, align 8, !tbaa !45
  %13 = getelementptr i8, ptr %.val12, i64 8
  %.val = load ptr, ptr %13, align 8, !tbaa !4
  %14 = getelementptr inbounds nuw i8, ptr %.val, i64 24
  %15 = load ptr, ptr %14, align 8, !tbaa !46
  %16 = tail call ptr (ptr, ptr, ...) @PyErr_Format(ptr noundef %12, ptr noundef nonnull @.str.22, ptr noundef %15) #6
  %17 = load i32, ptr %.val12, align 8, !tbaa !42
  %.not.i = icmp sgt i32 %17, -1
  br i1 %.not.i, label %18, label %Py_DECREF.exit

18:                                               ; preds = %11
  %19 = add nsw i32 %17, -1
  store i32 %19, ptr %.val12, align 8, !tbaa !42
  %20 = icmp eq i32 %19, 0
  br i1 %20, label %21, label %Py_DECREF.exit

21:                                               ; preds = %18
  tail call void @_Py_Dealloc(ptr noundef nonnull %.val12) #6
  br label %Py_DECREF.exit

22:                                               ; preds = %_PyWeakref_GET_REF.exit
  %23 = tail call ptr @PyIter_Next(ptr noundef nonnull %.val12) #6
  %24 = load i32, ptr %.val12, align 8, !tbaa !42
  %.not.i9 = icmp sgt i32 %24, -1
  br i1 %.not.i9, label %25, label %Py_DECREF.exit

25:                                               ; preds = %22
  %26 = add nsw i32 %24, -1
  store i32 %26, ptr %.val12, align 8, !tbaa !42
  %27 = icmp eq i32 %26, 0
  br i1 %27, label %28, label %Py_DECREF.exit

28:                                               ; preds = %25
  tail call void @_Py_Dealloc(ptr noundef nonnull %.val12) #6
  br label %Py_DECREF.exit

Py_DECREF.exit:                                   ; preds = %28, %25, %22, %21, %18, %11, %proxy_check_ref.exit
  %.0 = phi ptr [ null, %proxy_check_ref.exit ], [ null, %11 ], [ null, %18 ], [ null, %21 ], [ %23, %22 ], [ %23, %25 ], [ %23, %28 ]
  ret ptr %.0
}